target datalayout = "e-m:e-p270:32:32-p271:32:32-p272:64:64-i64:64-i128:128-f80:128-n8:16:32:64-S128"
target triple = "x86_64-unknown-linux-gnu"

%"class.std::vector" = type { %"struct.std::_Vector_base" }
%"struct.std::_Vector_base" = type { %"struct.std::_Vector_base<unsigned long, std::allocator<unsigned long>>::_Vector_impl" }
%"struct.std::_Vector_base<unsigned long, std::allocator<unsigned long>>::_Vector_impl" = type { %"struct.std::_Vector_base<unsigned long, std::allocator<unsigned long>>::_Vector_impl_data" }
%"struct.std::_Vector_base<unsigned long, std::allocator<unsigned long>>::_Vector_impl_data" = type { ptr, ptr, ptr }
%"class.QuantLib::FdmDirichletBoundary" = type { %"class.QuantLib::BoundaryCondition", i32, double, %"class.std::vector", double }
%"class.QuantLib::BoundaryCondition" = type { ptr }

; Function Attrs: mustprogress nounwind uwtable
define noundef double @_ZNK8QuantLib20FdmDirichletBoundary18applyAfterApplyingEdd(ptr noundef nonnull align 8 dereferenceable(56) %this, double noundef %x, double noundef %value) #7 align 2 {
entry:
  %this.addr = alloca ptr, align 8
  %x.addr = alloca double, align 8
  %value.addr = alloca double, align 8
  store ptr %this, ptr %this.addr, align 8, !tbaa !3
  store double %x, ptr %x.addr, align 8, !tbaa !7
  store double %value, ptr %value.addr, align 8, !tbaa !7
  %this1 = load ptr, ptr %this.addr, align 8
  %side_ = getelementptr inbounds nuw %"class.QuantLib::FdmDirichletBoundary", ptr %this1, i32 0, i32 1
  %0 = load i32, ptr %side_, align 8, !tbaa !15
  %cmp = icmp eq i32 %0, 2
  br i1 %cmp, label %land.lhs.true, label %lor.lhs.false

land.lhs.true:                                    ; preds = %entry
  %1 = load double, ptr %x.addr, align 8, !tbaa !7
  %xExtreme_ = getelementptr inbounds nuw %"class.QuantLib::FdmDirichletBoundary", ptr %this1, i32 0, i32 4
  %2 = load double, ptr %xExtreme_, align 8, !tbaa !23
  %cmp2 = fcmp olt double %1, %2
  br i1 %cmp2, label %cond.true, label %lor.lhs.false

lor.lhs.false:                                    ; preds = %land.lhs.true, %entry
  %side_3 = getelementptr inbounds nuw %"class.QuantLib::FdmDirichletBoundary", ptr %this1, i32 0, i32 1
  %3 = load i32, ptr %side_3, align 8, !tbaa !15
  %cmp4 = icmp eq i32 %3, 1
  br i1 %cmp4, label %land.lhs.true5, label %cond.false

land.lhs.true5:                                   ; preds = %lor.lhs.false
  %4 = load double, ptr %x.addr, align 8, !tbaa !7
  %xExtreme_6 = getelementptr inbounds nuw %"class.QuantLib::FdmDirichletBoundary", ptr %this1, i32 0, i32 4
  %5 = load double, ptr %xExtreme_6, align 8, !tbaa !23
  %cmp7 = fcmp ogt double %4, %5
  br i1 %cmp7, label %cond.true, label %cond.false

cond.true:                                        ; preds = %land.lhs.true5, %land.lhs.true
  %valueOnBoundary_ = getelementptr inbounds nuw %"class.QuantLib::FdmDirichletBoundary", ptr %this1, i32 0, i32 2
  %6 = load double, ptr %valueOnBoundary_, align 8, !tbaa !22
  br label %cond.end

cond.false:                                       ; preds = %land.lhs.true5, %lor.lhs.false
  %7 = load double, ptr %value.addr, align 8, !tbaa !7
  br label %cond.end

cond.end:                                         ; preds = %cond.false, %cond.true
  %cond = phi double [ %6, %cond.true ], [ %7, %cond.false ]
  ret double %cond
}