; Function Attrs: mustprogress nofree norecurse nosync nounwind willreturn memory(argmem: read) uwtable
define noundef double @_ZNK8QuantLib20FdmDirichletBoundary18applyAfterApplyingEdd(ptr nocapture noundef nonnull readonly align 8 dereferenceable(56) %this, double noundef %x, double noundef %value) local_unnamed_addr #10 align 2 {
entry:
  %side_ = getelementptr inbounds nuw i8, ptr %this, i64 8
  %0 = load i32, ptr %side_, align 8, !tbaa !6
  %cmp = icmp eq i32 %0, 2
  %xExtreme_ = getelementptr inbounds nuw i8, ptr %this, i64 48
  %1 = load double, ptr %xExtreme_, align 8
  %cmp2 = fcmp olt double %x, %1
  %or.cond = select i1 %cmp, i1 %cmp2, i1 false
  br i1 %or.cond, label %cond.true, label %lor.lhs.false

lor.lhs.false:                                    ; preds = %entry
  %cmp4 = icmp eq i32 %0, 1
  %cmp7 = fcmp ogt double %x, %1
  %or.cond2 = select i1 %cmp4, i1 %cmp7, i1 false
  br i1 %or.cond2, label %cond.true, label %cond.end

cond.true:                                        ; preds = %lor.lhs.false, %entry
  %valueOnBoundary_ = getelementptr inbounds nuw i8, ptr %this, i64 16
  %2 = load double, ptr %valueOnBoundary_, align 8, !tbaa !17
  br label %cond.end

cond.end:                                         ; preds = %lor.lhs.false, %cond.true
  %cond = phi double [ %2, %cond.true ], [ %value, %lor.lhs.false ]
  ret double %cond
}